; Function Attrs: mustprogress nofree norecurse nosync nounwind willreturn memory(argmem: read) uwtable
define noundef ptr @_ZN4base6Pickle8FindNextEmPKcS2_(i64 noundef %0, ptr noundef %1, ptr noundef %2) local_unnamed_addr #14 align 2 personality ptr @__gxx_personality_v0 {
  %4 = ptrtoint ptr %2 to i64
  %5 = ptrtoint ptr %1 to i64
  %6 = sub i64 %4, %5
  %7 = icmp ugt i64 %6, 3
  %8 = icmp uge i64 %6, %0
  %or.cond.i = and i1 %7, %8
  br i1 %or.cond.i, label %9, label %_ZN4base6Pickle8PeekNextEmPKcS2_Pm.exit

9:                                                ; preds = %3
  %10 = load i32, ptr %1, align 4, !tbaa !15
  %11 = zext i32 %10 to i64
  %spec.select.i = tail call i64 @llvm.uadd.sat.i64(i64 %0, i64 %11)
  br label %_ZN4base6Pickle8PeekNextEmPKcS2_Pm.exit

_ZN4base6Pickle8PeekNextEmPKcS2_Pm.exit:          ; preds = %3, %9
  %.07 = phi i64 [ %spec.select.i, %9 ], [ 0, %3 ]
  %12 = icmp ugt i64 %.07, %6
  %13 = getelementptr inbounds nuw i8, ptr %1, i64 %.07
  %spec.select = select i1 %12, ptr null, ptr %13
  %.0 = select i1 %or.cond.i, ptr %spec.select, ptr null
  ret ptr %.0
}